target datalayout = "e-m:e-p270:32:32-p271:32:32-p272:64:64-i64:64-i128:128-f80:128-n8:16:32:64-S128"
target triple = "x86_64-pc-linux-gnu"

%struct.slurmdb_cluster_rec = type { ptr, i16, i64, %struct.sockaddr_storage, ptr, i32, i16, ptr, i16, %struct.slurmdb_cluster_fed_t, i32, %union.pthread_mutex_t, ptr, ptr, ptr, i16, ptr, ptr }
%struct.sockaddr_storage = type { i16, [118 x i8], i64 }
%struct.slurmdb_cluster_fed_t = type { ptr, i32, ptr, ptr, ptr, i32, i8, i8 }
%union.pthread_mutex_t = type { %struct.__pthread_mutex_s }
%struct.__pthread_mutex_s = type { i32, i32, i32, i32, i32, i16, i16, %struct.__pthread_internal_list }
%struct.__pthread_internal_list = type { ptr, ptr }
%struct.local_cluster_rec_t = type { ptr, i32, i64 }
%struct.will_run_response_msg = type { i32, ptr, ptr, ptr, ptr, i32, i64, double }

@working_cluster_rec = dso_local global ptr null, align 8
@.str.2 = private unnamed_addr constant [15 x i8] c"slurmdb_defs.c\00", align 1
@.str.11 = private unnamed_addr constant [1 x i8] zeroinitializer, align 1
@.str.13 = private unnamed_addr constant [2 x i8] c",\00", align 1
@.str.233 = private unnamed_addr constant [84 x i8] c"Job %u to start at %s on cluster %s using %u processors on nodes %s in partition %s\00", align 1
@__func__._job_will_run = private unnamed_addr constant [14 x i8] c"_job_will_run\00", align 1
@.str.234 = private unnamed_addr constant [5 x i8] c"%s%u\00", align 1
@.str.235 = private unnamed_addr constant [15 x i8] c"  Preempts: %s\00", align 1

; Function Attrs: nounwind uwtable
define internal ptr @_job_will_run(ptr noundef %0) #0 {
  %2 = alloca ptr, align 8
  %3 = alloca ptr, align 8
  %4 = alloca ptr, align 8
  %5 = alloca [256 x i8], align 16
  %6 = alloca i32, align 4
  %7 = alloca ptr, align 8
  %8 = alloca ptr, align 8
  %9 = alloca ptr, align 8
  %10 = alloca ptr, align 8
  store ptr %0, ptr %2, align 8
  call void @llvm.lifetime.start.p0(i64 8, ptr %3) #10
  store ptr null, ptr %3, align 8
  call void @llvm.lifetime.start.p0(i64 8, ptr %4) #10
  call void @llvm.lifetime.start.p0(i64 256, ptr %5) #10
  call void @llvm.lifetime.start.p0(i64 4, ptr %6) #10
  %11 = load ptr, ptr %2, align 8
  %12 = call i32 @slurm_job_will_run2(ptr noundef %11, ptr noundef %4)
  store i32 %12, ptr %6, align 4
  %13 = load i32, ptr %6, align 4
  %14 = icmp sge i32 %13, 0
  br i1 %14, label %15, label %96

15:                                               ; preds = %1
  %16 = load ptr, ptr %4, align 8
  %17 = getelementptr inbounds nuw %struct.will_run_response_msg, ptr %16, i32 0, i32 6
  %18 = getelementptr inbounds [256 x i8], ptr %5, i64 0, i64 0
  call void @slurm_make_time_str(ptr noundef %17, ptr noundef %18, i32 noundef 256)
  br label %19

19:                                               ; preds = %15
  br label %20

20:                                               ; preds = %19
  %21 = call i32 @get_log_level()
  %22 = icmp sge i32 %21, 5
  br i1 %22, label %23, label %40

23:                                               ; preds = %20
  %24 = load ptr, ptr %4, align 8
  %25 = getelementptr inbounds nuw %struct.will_run_response_msg, ptr %24, i32 0, i32 0
  %26 = load i32, ptr %25, align 8
  %27 = getelementptr inbounds [256 x i8], ptr %5, i64 0, i64 0
  %28 = load ptr, ptr @working_cluster_rec, align 8
  %29 = getelementptr inbounds nuw %struct.slurmdb_cluster_rec, ptr %28, i32 0, i32 12
  %30 = load ptr, ptr %29, align 8
  %31 = load ptr, ptr %4, align 8
  %32 = getelementptr inbounds nuw %struct.will_run_response_msg, ptr %31, i32 0, i32 5
  %33 = load i32, ptr %32, align 8
  %34 = load ptr, ptr %4, align 8
  %35 = getelementptr inbounds nuw %struct.will_run_response_msg, ptr %34, i32 0, i32 2
  %36 = load ptr, ptr %35, align 8
  %37 = load ptr, ptr %4, align 8
  %38 = getelementptr inbounds nuw %struct.will_run_response_msg, ptr %37, i32 0, i32 3
  %39 = load ptr, ptr %38, align 8
  call void (i32, ptr, ...) @log_var(i32 noundef 5, ptr noundef @.str.233, i32 noundef %26, ptr noundef %27, ptr noundef %30, i32 noundef %33, ptr noundef %36, ptr noundef %39)
  br label %40

40:                                               ; preds = %23, %20
  br label %41

41:                                               ; preds = %40
  br label %42

42:                                               ; preds = %41
  br label %43

43:                                               ; preds = %42
  br label %44

44:                                               ; preds = %43
  %45 = call ptr @slurm_xcalloc(i64 noundef 1, i64 noundef 24, i1 noundef zeroext true, i1 noundef zeroext false, ptr noundef @.str.2, i32 noundef 503, ptr noundef @__func__._job_will_run)
  store ptr %45, ptr %3, align 8
  %46 = load ptr, ptr @working_cluster_rec, align 8
  %47 = load ptr, ptr %3, align 8
  %48 = getelementptr inbounds nuw %struct.local_cluster_rec_t, ptr %47, i32 0, i32 0
  store ptr %46, ptr %48, align 8
  %49 = load ptr, ptr %4, align 8
  %50 = getelementptr inbounds nuw %struct.will_run_response_msg, ptr %49, i32 0, i32 6
  %51 = load i64, ptr %50, align 8
  %52 = load ptr, ptr %3, align 8
  %53 = getelementptr inbounds nuw %struct.local_cluster_rec_t, ptr %52, i32 0, i32 2
  store i64 %51, ptr %53, align 8
  %54 = load ptr, ptr %4, align 8
  %55 = getelementptr inbounds nuw %struct.will_run_response_msg, ptr %54, i32 0, i32 4
  %56 = load ptr, ptr %55, align 8
  %57 = icmp ne ptr %56, null
  br i1 %57, label %58, label %94

58:                                               ; preds = %44
  call void @llvm.lifetime.start.p0(i64 8, ptr %7) #10
  call void @llvm.lifetime.start.p0(i64 8, ptr %8) #10
  call void @llvm.lifetime.start.p0(i64 8, ptr %9) #10
  store ptr null, ptr %9, align 8
  call void @llvm.lifetime.start.p0(i64 8, ptr %10) #10
  store ptr @.str.11, ptr %10, align 8
  %59 = load ptr, ptr %4, align 8
  %60 = getelementptr inbounds nuw %struct.will_run_response_msg, ptr %59, i32 0, i32 4
  %61 = load ptr, ptr %60, align 8
  %62 = call i32 @list_count(ptr noundef %61)
  %63 = load ptr, ptr %3, align 8
  %64 = getelementptr inbounds nuw %struct.local_cluster_rec_t, ptr %63, i32 0, i32 1
  store i32 %62, ptr %64, align 8
  %65 = load ptr, ptr %4, align 8
  %66 = getelementptr inbounds nuw %struct.will_run_response_msg, ptr %65, i32 0, i32 4
  %67 = load ptr, ptr %66, align 8
  %68 = call ptr @list_iterator_create(ptr noundef %67)
  store ptr %68, ptr %7, align 8
  br label %69

69:                                               ; preds = %77, %58
  %70 = load ptr, ptr %7, align 8
  %71 = call ptr @list_next(ptr noundef %70)
  store ptr %71, ptr %8, align 8
  %72 = icmp ne ptr %71, null
  br i1 %72, label %73, label %81

73:                                               ; preds = %69
  %74 = load ptr, ptr %9, align 8
  %75 = icmp ne ptr %74, null
  br i1 %75, label %76, label %77

76:                                               ; preds = %73
  store ptr @.str.13, ptr %10, align 8
  br label %77

77:                                               ; preds = %76, %73
  %78 = load ptr, ptr %10, align 8
  %79 = load ptr, ptr %8, align 8
  %80 = load i32, ptr %79, align 4
  call void (ptr, ptr, ...) @_xstrfmtcat(ptr noundef %9, ptr noundef @.str.234, ptr noundef %78, i32 noundef %80)
  br label %69, !llvm.loop !41

81:                                               ; preds = %69
  %82 = load ptr, ptr %7, align 8
  call void @list_iterator_destroy(ptr noundef %82)
  br label %83

83:                                               ; preds = %81
  br label %84

84:                                               ; preds = %83
  %85 = call i32 @get_log_level()
  %86 = icmp sge i32 %85, 5
  br i1 %86, label %87, label %89

87:                                               ; preds = %84
  %88 = load ptr, ptr %9, align 8
  call void (i32, ptr, ...) @log_var(i32 noundef 5, ptr noundef @.str.235, ptr noundef %88)
  br label %89

89:                                               ; preds = %87, %84
  br label %90

90:                                               ; preds = %89
  br label %91

91:                                               ; preds = %90
  br label %92

92:                                               ; preds = %91
  br label %93

93:                                               ; preds = %92
  call void @slurm_xfree(ptr noundef %9)
  call void @llvm.lifetime.end.p0(i64 8, ptr %10) #10
  call void @llvm.lifetime.end.p0(i64 8, ptr %9) #10
  call void @llvm.lifetime.end.p0(i64 8, ptr %8) #10
  call void @llvm.lifetime.end.p0(i64 8, ptr %7) #10
  br label %94

94:                                               ; preds = %93, %44
  %95 = load ptr, ptr %4, align 8
  call void @slurm_free_will_run_response_msg(ptr noundef %95)
  br label %96

96:                                               ; preds = %94, %1
  %97 = load ptr, ptr %3, align 8
  call void @llvm.lifetime.end.p0(i64 4, ptr %6) #10
  call void @llvm.lifetime.end.p0(i64 256, ptr %5) #10
  call void @llvm.lifetime.end.p0(i64 8, ptr %4) #10
  call void @llvm.lifetime.end.p0(i64 8, ptr %3) #10
  ret ptr %97
}