; Function Attrs: nounwind uwtable
define internal fastcc noundef ptr @_job_will_run(ptr noundef %0) unnamed_addr #0 {
  %2 = alloca ptr, align 8
  %3 = alloca [256 x i8], align 16
  %4 = alloca ptr, align 8
  call void @llvm.lifetime.start.p0(i64 8, ptr nonnull %2) #19
  call void @llvm.lifetime.start.p0(i64 256, ptr nonnull %3) #19
  %5 = call i32 @slurm_job_will_run2(ptr noundef %0, ptr noundef nonnull %2) #19
  %6 = icmp sgt i32 %5, -1
  br i1 %6, label %7, label %52

7:                                                ; preds = %1
  %8 = load ptr, ptr %2, align 8
  %9 = getelementptr inbounds nuw i8, ptr %8, i64 48
  call void @slurm_make_time_str(ptr noundef nonnull %9, ptr noundef nonnull %3, i32 noundef 256) #19
  %10 = call i32 @get_log_level() #19
  %11 = icmp sgt i32 %10, 4
  br i1 %11, label %12, label %24

12:                                               ; preds = %7
  %13 = load ptr, ptr %2, align 8
  %14 = load i32, ptr %13, align 8
  %15 = load ptr, ptr @working_cluster_rec, align 8
  %16 = getelementptr inbounds nuw i8, ptr %15, i64 280
  %17 = load ptr, ptr %16, align 8
  %18 = getelementptr inbounds nuw i8, ptr %13, i64 40
  %19 = load i32, ptr %18, align 8
  %20 = getelementptr inbounds nuw i8, ptr %13, i64 16
  %21 = load ptr, ptr %20, align 8
  %22 = getelementptr inbounds nuw i8, ptr %13, i64 24
  %23 = load ptr, ptr %22, align 8
  call void (i32, ptr, ...) @log_var(i32 noundef 5, ptr noundef nonnull @.str.233, i32 noundef %14, ptr noundef nonnull %3, ptr noundef %17, i32 noundef %19, ptr noundef %21, ptr noundef %23) #19
  br label %24

24:                                               ; preds = %12, %7
  %25 = call ptr @slurm_xcalloc(i64 noundef 1, i64 noundef 24, i1 noundef zeroext true, i1 noundef zeroext false, ptr noundef nonnull @.str.2, i32 noundef 503, ptr noundef nonnull @__func__._job_will_run) #19
  %26 = load ptr, ptr @working_cluster_rec, align 8
  store ptr %26, ptr %25, align 8
  %27 = load ptr, ptr %2, align 8
  %28 = getelementptr inbounds nuw i8, ptr %27, i64 48
  %29 = load i64, ptr %28, align 8
  %30 = getelementptr inbounds nuw i8, ptr %25, i64 16
  store i64 %29, ptr %30, align 8
  %31 = getelementptr inbounds nuw i8, ptr %27, i64 32
  %32 = load ptr, ptr %31, align 8
  %.not = icmp eq ptr %32, null
  br i1 %.not, label %50, label %33

33:                                               ; preds = %24
  call void @llvm.lifetime.start.p0(i64 8, ptr nonnull %4) #19
  store ptr null, ptr %4, align 8
  %34 = call i32 @list_count(ptr noundef nonnull %32) #19
  %35 = getelementptr inbounds nuw i8, ptr %25, i64 8
  store i32 %34, ptr %35, align 8
  %36 = load ptr, ptr %2, align 8
  %37 = getelementptr inbounds nuw i8, ptr %36, i64 32
  %38 = load ptr, ptr %37, align 8
  %39 = call ptr @list_iterator_create(ptr noundef %38) #19
  %40 = call ptr @list_next(ptr noundef %39) #19
  %.not1113 = icmp eq ptr %40, null
  br i1 %.not1113, label %._crit_edge, label %.lr.ph

.lr.ph:                                           ; preds = %33, %.lr.ph
  %41 = phi ptr [ %44, %.lr.ph ], [ %40, %33 ]
  %.014 = phi ptr [ %spec.select, %.lr.ph ], [ @.str.11, %33 ]
  %42 = load ptr, ptr %4, align 8
  %.not12 = icmp eq ptr %42, null
  %spec.select = select i1 %.not12, ptr %.014, ptr @.str.13
  %43 = load i32, ptr %41, align 4
  call void (ptr, ptr, ...) @_xstrfmtcat(ptr noundef nonnull %4, ptr noundef nonnull @.str.234, ptr noundef %spec.select, i32 noundef %43) #19
  %44 = call ptr @list_next(ptr noundef %39) #19
  %.not11 = icmp eq ptr %44, null
  br i1 %.not11, label %._crit_edge, label %.lr.ph, !llvm.loop !41

._crit_edge:                                      ; preds = %.lr.ph, %33
  call void @list_iterator_destroy(ptr noundef %39) #19
  %45 = call i32 @get_log_level() #19
  %46 = icmp sgt i32 %45, 4
  br i1 %46, label %47, label %49

47:                                               ; preds = %._crit_edge
  %48 = load ptr, ptr %4, align 8
  call void (i32, ptr, ...) @log_var(i32 noundef 5, ptr noundef nonnull @.str.235, ptr noundef %48) #19
  br label %49

49:                                               ; preds = %47, %._crit_edge
  call void @slurm_xfree(ptr noundef nonnull %4) #19
  call void @llvm.lifetime.end.p0(i64 8, ptr nonnull %4) #19
  %.pre = load ptr, ptr %2, align 8
  br label %50

50:                                               ; preds = %49, %24
  %51 = phi ptr [ %.pre, %49 ], [ %27, %24 ]
  call void @slurm_free_will_run_response_msg(ptr noundef %51) #19
  br label %52

52:                                               ; preds = %50, %1
  %.09 = phi ptr [ %25, %50 ], [ null, %1 ]
  call void @llvm.lifetime.end.p0(i64 256, ptr nonnull %3) #19
  call void @llvm.lifetime.end.p0(i64 8, ptr nonnull %2) #19
  ret ptr %.09
}